#include <math.h>
#include <stdio.h>
#include <stdlib.h>
#include <string.h>

int main(){
	int n,a=0;
	scanf("%d",&n);
	if(n==1){
	     printf("End");
	}
	else {
	for(int i=0;i<99999;i++){
		   a=n;
	       if(n%2==0){
		          n=n/2;
				  printf("%d/2=%d\n",a,n);
		   }else{
		          n=n*3+1;
				  printf("%d*3+1=%d\n",a,n);
		   }
		   if(n==1){
			   printf("End");
		          break;
		   }
		  
	}}
     return 0;
}
